#include <math.h>
#include <stdio.h>
#include <stdlib.h>
#include <string.h>

void main()
{
	int a[302],n,i,k;
	scanf("%d",&n);
	for(i=1;i<=n;i++)
		scanf("%d",&a[i]);
	for(i=1;i<n;i++)
	{
		for(k=i+1;k<=n;k++)
			if(a[i]==a[k])
				a[k]=0;
	}
	for(i=1;i<=n;i++)
	{
		if(a[i]!=0&&i==1)
		{
			printf("%d",a[i]);
		}
		else if(a[i]!=0)
			printf(",%d",a[i]);
	}
}
	