; ModuleID = '53/455.c'
source_filename = "53/455.c"
target datalayout = "e-m:e-p270:32:32-p271:32:32-p272:64:64-i64:64-f80:128-n8:16:32:64-S128"
target triple = "x86_64-pc-linux-gnu"

@.str = private unnamed_addr constant [3 x i8] c"%d\00", align 1
@.str.1 = private unnamed_addr constant [4 x i8] c",%d\00", align 1

; Function Attrs: noinline nounwind uwtable
define dso_local void @main() #0 {
  %1 = alloca [302 x i32], align 16
  %2 = alloca i32, align 4
  %3 = alloca i32, align 4
  %4 = alloca i32, align 4
  %5 = call i32 (i8*, ...) @__isoc99_scanf(i8* getelementptr inbounds ([3 x i8], [3 x i8]* @.str, i64 0, i64 0), i32* %2)
  store i32 1, i32* %3, align 4
  br label %6

6:                                                ; preds = %15, %0
  %7 = load i32, i32* %3, align 4
  %8 = load i32, i32* %2, align 4
  %9 = icmp sle i32 %7, %8
  br i1 %9, label %10, label %18

10:                                               ; preds = %6
  %11 = load i32, i32* %3, align 4
  %12 = sext i32 %11 to i64
  %13 = getelementptr inbounds [302 x i32], [302 x i32]* %1, i64 0, i64 %12
  %14 = call i32 (i8*, ...) @__isoc99_scanf(i8* getelementptr inbounds ([3 x i8], [3 x i8]* @.str, i64 0, i64 0), i32* %13)
  br label %15

15:                                               ; preds = %10
  %16 = load i32, i32* %3, align 4
  %17 = add nsw i32 %16, 1
  store i32 %17, i32* %3, align 4
  br label %6

18:                                               ; preds = %6
  store i32 1, i32* %3, align 4
  br label %19

19:                                               ; preds = %49, %18
  %20 = load i32, i32* %3, align 4
  %21 = load i32, i32* %2, align 4
  %22 = icmp slt i32 %20, %21
  br i1 %22, label %23, label %52

23:                                               ; preds = %19
  %24 = load i32, i32* %3, align 4
  %25 = add nsw i32 %24, 1
  store i32 %25, i32* %4, align 4
  br label %26

26:                                               ; preds = %45, %23
  %27 = load i32, i32* %4, align 4
  %28 = load i32, i32* %2, align 4
  %29 = icmp sle i32 %27, %28
  br i1 %29, label %30, label %48

30:                                               ; preds = %26
  %31 = load i32, i32* %3, align 4
  %32 = sext i32 %31 to i64
  %33 = getelementptr inbounds [302 x i32], [302 x i32]* %1, i64 0, i64 %32
  %34 = load i32, i32* %33, align 4
  %35 = load i32, i32* %4, align 4
  %36 = sext i32 %35 to i64
  %37 = getelementptr inbounds [302 x i32], [302 x i32]* %1, i64 0, i64 %36
  %38 = load i32, i32* %37, align 4
  %39 = icmp eq i32 %34, %38
  br i1 %39, label %40, label %44

40:                                               ; preds = %30
  %41 = load i32, i32* %4, align 4
  %42 = sext i32 %41 to i64
  %43 = getelementptr inbounds [302 x i32], [302 x i32]* %1, i64 0, i64 %42
  store i32 0, i32* %43, align 4
  br label %44

44:                                               ; preds = %40, %30
  br label %45

45:                                               ; preds = %44
  %46 = load i32, i32* %4, align 4
  %47 = add nsw i32 %46, 1
  store i32 %47, i32* %4, align 4
  br label %26

48:                                               ; preds = %26
  br label %49

49:                                               ; preds = %48
  %50 = load i32, i32* %3, align 4
  %51 = add nsw i32 %50, 1
  store i32 %51, i32* %3, align 4
  br label %19

52:                                               ; preds = %19
  store i32 1, i32* %3, align 4
  br label %53

53:                                               ; preds = %86, %52
  %54 = load i32, i32* %3, align 4
  %55 = load i32, i32* %2, align 4
  %56 = icmp sle i32 %54, %55
  br i1 %56, label %57, label %89

57:                                               ; preds = %53
  %58 = load i32, i32* %3, align 4
  %59 = sext i32 %58 to i64
  %60 = getelementptr inbounds [302 x i32], [302 x i32]* %1, i64 0, i64 %59
  %61 = load i32, i32* %60, align 4
  %62 = icmp ne i32 %61, 0
  br i1 %62, label %63, label %72

63:                                               ; preds = %57
  %64 = load i32, i32* %3, align 4
  %65 = icmp eq i32 %64, 1
  br i1 %65, label %66, label %72

66:                                               ; preds = %63
  %67 = load i32, i32* %3, align 4
  %68 = sext i32 %67 to i64
  %69 = getelementptr inbounds [302 x i32], [302 x i32]* %1, i64 0, i64 %68
  %70 = load i32, i32* %69, align 4
  %71 = call i32 (i8*, ...) @printf(i8* getelementptr inbounds ([3 x i8], [3 x i8]* @.str, i64 0, i64 0), i32 %70)
  br label %85

72:                                               ; preds = %63, %57
  %73 = load i32, i32* %3, align 4
  %74 = sext i32 %73 to i64
  %75 = getelementptr inbounds [302 x i32], [302 x i32]* %1, i64 0, i64 %74
  %76 = load i32, i32* %75, align 4
  %77 = icmp ne i32 %76, 0
  br i1 %77, label %78, label %84

78:                                               ; preds = %72
  %79 = load i32, i32* %3, align 4
  %80 = sext i32 %79 to i64
  %81 = getelementptr inbounds [302 x i32], [302 x i32]* %1, i64 0, i64 %80
  %82 = load i32, i32* %81, align 4
  %83 = call i32 (i8*, ...) @printf(i8* getelementptr inbounds ([4 x i8], [4 x i8]* @.str.1, i64 0, i64 0), i32 %82)
  br label %84

84:                                               ; preds = %78, %72
  br label %85

85:                                               ; preds = %84, %66
  br label %86

86:                                               ; preds = %85
  %87 = load i32, i32* %3, align 4
  %88 = add nsw i32 %87, 1
  store i32 %88, i32* %3, align 4
  br label %53

89:                                               ; preds = %53
  ret void
}

declare dso_local i32 @__isoc99_scanf(i8*, ...) #1

declare dso_local i32 @printf(i8*, ...) #1


!llvm.module.flags = !{!0}
!llvm.ident = !{!1}

!0 = !{i32 1, !"wchar_size", i32 4}
!1 = !{!"clang version 10.0.0-4ubuntu1 "}
